target datalayout = "e-m:e-p270:32:32-p271:32:32-p272:64:64-i64:64-i128:128-f80:128-n8:16:32:64-S128"
target triple = "x86_64-unknown-linux-gnu"

%"class.absl::cord_internal::InlineData" = type { %"struct.absl::cord_internal::InlineData::Rep" }
%"struct.absl::cord_internal::InlineData::Rep" = type { %union.anon }
%union.anon = type { %"struct.absl::cord_internal::InlineData::Rep::AsTree" }
%"struct.absl::cord_internal::InlineData::Rep::AsTree" = type { i64, ptr }

; Function Attrs: mustprogress nounwind uwtable
define linkonce_odr dso_local void @_ZN4absl13cord_internal10InlineData3Rep14set_cordz_infoEl(ptr noundef nonnull align 8 dereferenceable(16) %this, i64 noundef %rhs) #0 comdat align 2 {
entry:
  %this.addr = alloca ptr, align 8
  %rhs.addr = alloca i64, align 8
  store ptr %this, ptr %this.addr, align 8
  store i64 %rhs, ptr %rhs.addr, align 8
  %this1 = load ptr, ptr %this.addr, align 8
  %0 = load i64, ptr %rhs.addr, align 8
  %1 = getelementptr inbounds %"struct.absl::cord_internal::InlineData::Rep", ptr %this1, i32 0, i32 0
  %cordz_info = getelementptr inbounds %"struct.absl::cord_internal::InlineData::Rep::AsTree", ptr %1, i32 0, i32 0
  store i64 %0, ptr %cordz_info, align 8
  ret void
}

; Function Attrs: mustprogress nounwind uwtable
define linkonce_odr dso_local noundef i64 @_ZN4absl13little_endian8ToHost64Em(i64 noundef %x) #0 comdat {
entry:
  %x.addr = alloca i64, align 8
  store i64 %x, ptr %x.addr, align 8
  %0 = load i64, ptr %x.addr, align 8
  ret i64 %0
}

; Function Attrs: mustprogress nounwind uwtable
define linkonce_odr dso_local noundef i64 @_ZNK4absl13cord_internal10InlineData3Rep10cordz_infoEv(ptr noundef nonnull align 8 dereferenceable(16) %this) #0 comdat align 2 {
entry:
  %this.addr = alloca ptr, align 8
  store ptr %this, ptr %this.addr, align 8
  %this1 = load ptr, ptr %this.addr, align 8
  %0 = getelementptr inbounds %"struct.absl::cord_internal::InlineData::Rep", ptr %this1, i32 0, i32 0
  %cordz_info = getelementptr inbounds %"struct.absl::cord_internal::InlineData::Rep::AsTree", ptr %0, i32 0, i32 0
  %1 = load i64, ptr %cordz_info, align 8
  ret i64 %1
}

; Function Attrs: mustprogress nounwind uwtable
define linkonce_odr dso_local void @_ZN4absl13cord_internal10InlineData16clear_cordz_infoEv(ptr noundef nonnull align 8 dereferenceable(16) %this) #0 comdat align 2 {
entry:
  %this.addr = alloca ptr, align 8
  store ptr %this, ptr %this.addr, align 8
  %this1 = load ptr, ptr %this.addr, align 8
  %rep_ = getelementptr inbounds %"class.absl::cord_internal::InlineData", ptr %this1, i32 0, i32 0
  call void @_ZN4absl13cord_internal10InlineData3Rep14set_cordz_infoEl(ptr noundef nonnull align 8 dereferenceable(16) %rep_, i64 noundef 1)
  ret void
}

; Function Attrs: mustprogress uwtable
define linkonce_odr dso_local noundef ptr @_ZNK4absl13cord_internal10InlineData10cordz_infoEv(ptr noundef nonnull align 8 dereferenceable(16) %this) #1 comdat align 2 {
entry:
  %this.addr = alloca ptr, align 8
  %info = alloca i64, align 8
  store ptr %this, ptr %this.addr, align 8
  %this1 = load ptr, ptr %this.addr, align 8
  %rep_ = getelementptr inbounds %"class.absl::cord_internal::InlineData", ptr %this1, i32 0, i32 0
  %call = call noundef i64 @_ZNK4absl13cord_internal10InlineData3Rep10cordz_infoEv(ptr noundef nonnull align 8 dereferenceable(16) %rep_)
  %call2 = call noundef i64 @_ZN4absl13little_endian8ToHost64Em(i64 noundef %call)
  store i64 %call2, ptr %info, align 8
  %0 = load i64, ptr %info, align 8
  %sub = sub nsw i64 %0, 1
  %1 = inttoptr i64 %sub to ptr
  ret ptr %1
}

; Function Attrs: mustprogress nounwind uwtable
define linkonce_odr dso_local noundef zeroext i1 @_ZNK4absl13cord_internal10InlineData11is_profiledEv(ptr noundef nonnull align 8 dereferenceable(16) %this) #0 comdat align 2 {
entry:
  %this.addr = alloca ptr, align 8
  store ptr %this, ptr %this.addr, align 8
  %this1 = load ptr, ptr %this.addr, align 8
  %rep_ = getelementptr inbounds %"class.absl::cord_internal::InlineData", ptr %this1, i32 0, i32 0
  %call = call noundef i64 @_ZNK4absl13cord_internal10InlineData3Rep10cordz_infoEv(ptr noundef nonnull align 8 dereferenceable(16) %rep_)
  %cmp = icmp ne i64 %call, 1
  ret i1 %cmp
}

; Function Attrs: mustprogress uwtable
define dso_local void @_ZN4absl13cord_internal9CordzInfo18MaybeTrackCordImplERNS0_10InlineDataERKS2_NS0_18CordzUpdateTracker16MethodIdentifierE(ptr noundef nonnull align 8 dereferenceable(16) %cord, ptr noundef nonnull align 8 dereferenceable(16) %src, i32 noundef %method) #1 align 2 {
entry:
  %cord.addr = alloca ptr, align 8
  %src.addr = alloca ptr, align 8
  %method.addr = alloca i32, align 4
  store ptr %cord, ptr %cord.addr, align 8
  store ptr %src, ptr %src.addr, align 8
  store i32 %method, ptr %method.addr, align 4
  %0 = load ptr, ptr %src.addr, align 8
  %call = call noundef zeroext i1 @_ZNK4absl13cord_internal10InlineData11is_profiledEv(ptr noundef nonnull align 8 dereferenceable(16) %0)
  br i1 %call, label %if.then, label %if.else

if.then:                                          ; preds = %entry
  %1 = load ptr, ptr %cord.addr, align 8
  %2 = load ptr, ptr %src.addr, align 8
  %3 = load i32, ptr %method.addr, align 4
  call void @_ZN4absl13cord_internal9CordzInfo9TrackCordERNS0_10InlineDataERKS2_NS0_18CordzUpdateTracker16MethodIdentifierE(ptr noundef nonnull align 8 dereferenceable(16) %1, ptr noundef nonnull align 8 dereferenceable(16) %2, i32 noundef %3)
  br label %if.end4

if.else:                                          ; preds = %entry
  %4 = load ptr, ptr %cord.addr, align 8
  %call1 = call noundef zeroext i1 @_ZNK4absl13cord_internal10InlineData11is_profiledEv(ptr noundef nonnull align 8 dereferenceable(16) %4)
  br i1 %call1, label %if.then2, label %if.end

if.then2:                                         ; preds = %if.else
  %5 = load ptr, ptr %cord.addr, align 8
  %call3 = call noundef ptr @_ZNK4absl13cord_internal10InlineData10cordz_infoEv(ptr noundef nonnull align 8 dereferenceable(16) %5)
  call void @_ZN4absl13cord_internal9CordzInfo7UntrackEv(ptr noundef nonnull align 8 dereferenceable(1332) %call3)
  %6 = load ptr, ptr %cord.addr, align 8
  call void @_ZN4absl13cord_internal10InlineData16clear_cordz_infoEv(ptr noundef nonnull align 8 dereferenceable(16) %6)
  br label %if.end

if.end:                                           ; preds = %if.then2, %if.else
  br label %if.end4

if.end4:                                          ; preds = %if.end, %if.then
  ret void
}