; Function Attrs: mustprogress uwtable
define dso_local void @_ZN4absl13cord_internal9CordzInfo18MaybeTrackCordImplERNS0_10InlineDataERKS2_NS0_18CordzUpdateTracker16MethodIdentifierE(ptr nocapture noundef nonnull align 8 dereferenceable(16) %cord, ptr nocapture noundef nonnull readonly align 8 dereferenceable(16) %src, i32 noundef %method) local_unnamed_addr #2 align 2 {
entry:
  %0 = load i64, ptr %src, align 8
  %cmp.i.not = icmp eq i64 %0, 1
  br i1 %cmp.i.not, label %if.else, label %if.then

if.then:                                          ; preds = %entry
  tail call void @_ZN4absl13cord_internal9CordzInfo9TrackCordERNS0_10InlineDataERKS2_NS0_18CordzUpdateTracker16MethodIdentifierE(ptr noundef nonnull align 8 dereferenceable(16) %cord, ptr noundef nonnull align 8 dereferenceable(16) %src, i32 noundef %method)
  br label %if.end4

if.else:                                          ; preds = %entry
  %1 = load i64, ptr %cord, align 8
  %cmp.i5.not = icmp eq i64 %1, 1
  br i1 %cmp.i5.not, label %if.end4, label %if.then2

if.then2:                                         ; preds = %if.else
  %sub.i = add nsw i64 %1, -1
  %2 = inttoptr i64 %sub.i to ptr
  tail call void @_ZN4absl13cord_internal9CordzInfo7UntrackEv(ptr noundef nonnull align 8 dereferenceable(1332) %2)
  store i64 1, ptr %cord, align 8
  br label %if.end4

if.end4:                                          ; preds = %if.else, %if.then2, %if.then
  ret void
}